; Function Attrs: mustprogress uwtable
define hidden void @_ZNK4cvc58internal16DTypeConstructor10getArgTypeEm(ptr noalias nocapture writeonly sret(%"class.cvc5::internal::TypeNode") align 8 %agg.result, ptr nocapture noundef nonnull readonly align 8 dereferenceable(264) %this, i64 noundef %index) local_unnamed_addr #3 align 2 personality ptr @__gxx_personality_v0 {
entry:
  %ref.tmp = alloca %"class.cvc5::internal::TypeNode", align 8
  %d_args.i = getelementptr inbounds i8, ptr %this, i64 80
  %0 = load ptr, ptr %d_args.i, align 8
  %add.ptr.i.i = getelementptr inbounds %"class.std::shared_ptr", ptr %0, i64 %index
  %1 = load ptr, ptr %add.ptr.i.i, align 8
  call void @_ZNK4cvc58internal13DTypeSelector7getTypeEv(ptr nonnull sret(%"class.cvc5::internal::TypeNode") align 8 %ref.tmp, ptr noundef nonnull align 8 dereferenceable(57) %1)
  call void @llvm.experimental.noalias.scope.decl(metadata !33)
  call void @llvm.experimental.noalias.scope.decl(metadata !36)
  %2 = load ptr, ptr %ref.tmp, align 8, !noalias !39
  %d_kind.i.i.i.i.i = getelementptr inbounds i8, ptr %2, i64 8
  %bf.load.i.i.i.i.i = load i16, ptr %d_kind.i.i.i.i.i, align 8, !noalias !39
  %bf.clear.i.i.i.i.i = and i16 %bf.load.i.i.i.i.i, 1023
  %bf.cast.i.i.i.i.i = zext nneg i16 %bf.clear.i.i.i.i.i to i32
  %cmp.i.i.i.i.i.i = icmp eq i16 %bf.clear.i.i.i.i.i, 1023
  %cond.i.i.i.i.i.i = select i1 %cmp.i.i.i.i.i.i, i32 -1, i32 %bf.cast.i.i.i.i.i
  %call2.i.i.i.i1 = invoke noundef i32 @_ZN4cvc58internal4kind10metaKindOfENS1_6Kind_tE(i32 noundef %cond.i.i.i.i.i.i)
          to label %call2.i.i.i.i.noexc unwind label %lpad

call2.i.i.i.i.noexc:                              ; preds = %entry
  %cmp.i.i.i = icmp eq i32 %call2.i.i.i.i1, 2
  %spec.select.i.i.i = select i1 %cmp.i.i.i, i64 2, i64 1
  %d_children.i.i.i = getelementptr inbounds i8, ptr %2, i64 16
  %arrayidx.i.i.i = getelementptr inbounds [0 x ptr], ptr %d_children.i.i.i, i64 0, i64 %spec.select.i.i.i
  %3 = load ptr, ptr %arrayidx.i.i.i, align 8, !noalias !39
  store ptr %3, ptr %agg.result, align 8, !alias.scope !39
  %bf.load.i.i.i.i = load i64, ptr %3, align 8, !noalias !39
  %bf.lshr.i.i.i.i = lshr i64 %bf.load.i.i.i.i, 40
  %4 = trunc i64 %bf.lshr.i.i.i.i to i32
  %bf.cast.i.i.i.i = and i32 %4, 1048575
  %cmp.i.i.i.i = icmp ult i32 %bf.cast.i.i.i.i, 1048574
  br i1 %cmp.i.i.i.i, label %if.then.i.i.i.i, label %if.else.i.i.i.i

if.then.i.i.i.i:                                  ; preds = %call2.i.i.i.i.noexc
  %bf.value.i.i.i.i = add i64 %bf.load.i.i.i.i, 1099511627776
  %bf.shl.i.i.i.i = and i64 %bf.value.i.i.i.i, 1152920405095219200
  %bf.clear7.i.i.i.i = and i64 %bf.load.i.i.i.i, -1152920405095219201
  %bf.set.i.i.i.i = or disjoint i64 %bf.shl.i.i.i.i, %bf.clear7.i.i.i.i
  store i64 %bf.set.i.i.i.i, ptr %3, align 8, !noalias !39
  br label %invoke.cont

if.else.i.i.i.i:                                  ; preds = %call2.i.i.i.i.noexc
  %cmp12.i.i.i.i = icmp eq i32 %bf.cast.i.i.i.i, 1048574
  br i1 %cmp12.i.i.i.i, label %if.then13.i.i.i.i, label %invoke.cont

if.then13.i.i.i.i:                                ; preds = %if.else.i.i.i.i
  %bf.set23.i.i.i.i = or i64 %bf.load.i.i.i.i, 1152920405095219200
  store i64 %bf.set23.i.i.i.i, ptr %3, align 8, !noalias !39
  invoke void @_ZN4cvc58internal4expr9NodeValue20markRefCountMaxedOutEv(ptr noundef nonnull align 8 dereferenceable(16) %3)
          to label %invoke.cont unwind label %lpad

invoke.cont:                                      ; preds = %if.else.i.i.i.i, %if.then.i.i.i.i, %if.then13.i.i.i.i
  %5 = load ptr, ptr %ref.tmp, align 8
  %bf.load.i.i = load i64, ptr %5, align 8
  %6 = and i64 %bf.load.i.i, 1152920405095219200
  %cmp.not.i.i = icmp eq i64 %6, 1152920405095219200
  br i1 %cmp.not.i.i, label %_ZN4cvc58internal8TypeNodeD2Ev.exit, label %if.then.i.i

if.then.i.i:                                      ; preds = %invoke.cont
  %bf.value.i.i = add i64 %bf.load.i.i, 1152920405095219200
  %bf.shl.i.i = and i64 %bf.value.i.i, 1152920405095219200
  %bf.clear7.i.i = and i64 %bf.load.i.i, -1152920405095219201
  %bf.set.i.i = or disjoint i64 %bf.shl.i.i, %bf.clear7.i.i
  store i64 %bf.set.i.i, ptr %5, align 8
  %cmp12.i.i = icmp eq i64 %bf.shl.i.i, 0
  br i1 %cmp12.i.i, label %if.then13.i.i, label %_ZN4cvc58internal8TypeNodeD2Ev.exit

if.then13.i.i:                                    ; preds = %if.then.i.i
  invoke void @_ZN4cvc58internal4expr9NodeValue15markForDeletionEv(ptr noundef nonnull align 8 dereferenceable(16) %5)
          to label %_ZN4cvc58internal8TypeNodeD2Ev.exit unwind label %terminate.lpad.i

terminate.lpad.i:                                 ; preds = %if.then13.i.i
  %7 = landingpad { ptr, i32 }
          catch ptr null
  %8 = extractvalue { ptr, i32 } %7, 0
  call void @__clang_call_terminate(ptr %8) #25
  unreachable

_ZN4cvc58internal8TypeNodeD2Ev.exit:              ; preds = %invoke.cont, %if.then.i.i, %if.then13.i.i
  ret void

lpad:                                             ; preds = %if.then13.i.i.i.i, %entry
  %9 = landingpad { ptr, i32 }
          cleanup
  call void @_ZN4cvc58internal8TypeNodeD2Ev(ptr noundef nonnull align 8 dereferenceable(8) %ref.tmp) #22
  resume { ptr, i32 } %9
}